; Function Attrs: mustprogress uwtable
define noundef i32 @_ZN2cv15getNearestPointERKSt6vectorINS_6Point_IfEESaIS2_EEf(ptr nocapture noundef nonnull readonly align 8 dereferenceable(24) %0, float noundef %1) local_unnamed_addr #5 personality ptr @__gxx_personality_v0 {
  %3 = alloca %"class.cv::utils::trace::details::Region", align 8
  call void @_ZN2cv5utils5trace7details6RegionC1ERKNS3_21LocationStaticStorageE(ptr noundef nonnull align 8 dereferenceable(12) %3, ptr noundef nonnull align 8 dereferenceable(32) @_ZZN2cv15getNearestPointERKSt6vectorINS_6Point_IfEESaIS2_EEfE25__cv_trace_location_fn553)
  %4 = fcmp oge float %1, 0.000000e+00
  %5 = fcmp ole float %1, 1.000000e+00
  %or.cond = and i1 %4, %5
  br i1 %or.cond, label %.preheader, label %.loopexit

.preheader:                                       ; preds = %2
  %6 = getelementptr inbounds i8, ptr %0, i64 8
  %7 = load ptr, ptr %6, align 8
  %8 = load ptr, ptr %0, align 8
  %.not = icmp eq ptr %7, %8
  br i1 %.not, label %.loopexit, label %.lr.ph.preheader

.lr.ph.preheader:                                 ; preds = %.preheader
  %9 = ptrtoint ptr %7 to i64
  %10 = ptrtoint ptr %8 to i64
  %11 = sub i64 %9, %10
  %12 = ashr exact i64 %11, 3
  %umax = call i64 @llvm.umax.i64(i64 %12, i64 1)
  br label %.lr.ph

.lr.ph:                                           ; preds = %.lr.ph.preheader, %.lr.ph
  %.020 = phi i32 [ %.1, %.lr.ph ], [ -1, %.lr.ph.preheader ]
  %.01319 = phi i64 [ %19, %.lr.ph ], [ 0, %.lr.ph.preheader ]
  %.01418 = phi float [ %.115, %.lr.ph ], [ 0x47EFFFFFE0000000, %.lr.ph.preheader ]
  %13 = getelementptr inbounds %"class.cv::Point_", ptr %8, i64 %.01319
  %14 = load float, ptr %13, align 4
  %15 = fsub float %1, %14
  %16 = call noundef float @llvm.fabs.f32(float %15)
  %17 = fcmp ugt float %16, %.01418
  %18 = trunc i64 %.01319 to i32
  %.115 = select i1 %17, float %.01418, float %16
  %.1 = select i1 %17, i32 %.020, i32 %18
  %19 = add nuw i64 %.01319, 1
  %exitcond.not = icmp eq i64 %19, %umax
  br i1 %exitcond.not, label %.loopexit, label %.lr.ph, !llvm.loop !45

.loopexit:                                        ; preds = %.lr.ph, %.preheader, %2
  %.2 = phi i32 [ -1, %2 ], [ -1, %.preheader ], [ %.1, %.lr.ph ]
  %20 = getelementptr inbounds i8, ptr %3, i64 8
  %21 = load i32, ptr %20, align 8
  %.not.i = icmp eq i32 %21, 0
  br i1 %.not.i, label %_ZN2cv5utils5trace7details6RegionD2Ev.exit, label %22

22:                                               ; preds = %.loopexit
  invoke void @_ZN2cv5utils5trace7details6Region7destroyEv(ptr noundef nonnull align 8 dereferenceable(12) %3)
          to label %_ZN2cv5utils5trace7details6RegionD2Ev.exit unwind label %23

23:                                               ; preds = %22
  %24 = landingpad { ptr, i32 }
          catch ptr null
  %25 = extractvalue { ptr, i32 } %24, 0
  call void @__clang_call_terminate(ptr %25) #23
  unreachable

_ZN2cv5utils5trace7details6RegionD2Ev.exit:       ; preds = %.loopexit, %22
  ret i32 %.2
}